
sll:     file format elf32-littleriscv


Disassembly of section .text.init:

00000000 <_start>:
   0:	0040006f          	jal	x0,4 <reset_vector>

00000004 <reset_vector>:
   4:	00100093          	addi	x1,x0,1
   8:	00000113          	addi	x2,x0,0
   c:	00209733          	sll	x14,x1,x2
  10:	00100393          	addi	x7,x0,1
  14:	00200193          	addi	x3,x0,2
  18:	52771e63          	bne	x14,x7,554 <fail>

0000001c <test_3>:
  1c:	00100093          	addi	x1,x0,1
  20:	00100113          	addi	x2,x0,1
  24:	00209733          	sll	x14,x1,x2
  28:	00200393          	addi	x7,x0,2
  2c:	00300193          	addi	x3,x0,3
  30:	52771263          	bne	x14,x7,554 <fail>

00000034 <test_4>:
  34:	00100093          	addi	x1,x0,1
  38:	00700113          	addi	x2,x0,7
  3c:	00209733          	sll	x14,x1,x2
  40:	08000393          	addi	x7,x0,128
  44:	00400193          	addi	x3,x0,4
  48:	50771663          	bne	x14,x7,554 <fail>

0000004c <test_5>:
  4c:	00100093          	addi	x1,x0,1
  50:	00e00113          	addi	x2,x0,14
  54:	00209733          	sll	x14,x1,x2
  58:	000043b7          	lui	x7,0x4
  5c:	00500193          	addi	x3,x0,5
  60:	4e771a63          	bne	x14,x7,554 <fail>

00000064 <test_6>:
  64:	00100093          	addi	x1,x0,1
  68:	01f00113          	addi	x2,x0,31
  6c:	00209733          	sll	x14,x1,x2
  70:	800003b7          	lui	x7,0x80000
  74:	00600193          	addi	x3,x0,6
  78:	4c771e63          	bne	x14,x7,554 <fail>

0000007c <test_7>:
  7c:	fff00093          	addi	x1,x0,-1
  80:	00000113          	addi	x2,x0,0
  84:	00209733          	sll	x14,x1,x2
  88:	fff00393          	addi	x7,x0,-1
  8c:	00700193          	addi	x3,x0,7
  90:	4c771263          	bne	x14,x7,554 <fail>

00000094 <test_8>:
  94:	fff00093          	addi	x1,x0,-1
  98:	00100113          	addi	x2,x0,1
  9c:	00209733          	sll	x14,x1,x2
  a0:	ffe00393          	addi	x7,x0,-2
  a4:	00800193          	addi	x3,x0,8
  a8:	4a771663          	bne	x14,x7,554 <fail>

000000ac <test_9>:
  ac:	fff00093          	addi	x1,x0,-1
  b0:	00700113          	addi	x2,x0,7
  b4:	00209733          	sll	x14,x1,x2
  b8:	f8000393          	addi	x7,x0,-128
  bc:	00900193          	addi	x3,x0,9
  c0:	48771a63          	bne	x14,x7,554 <fail>

000000c4 <test_10>:
  c4:	fff00093          	addi	x1,x0,-1
  c8:	00e00113          	addi	x2,x0,14
  cc:	00209733          	sll	x14,x1,x2
  d0:	ffffc3b7          	lui	x7,0xffffc
  d4:	00a00193          	addi	x3,x0,10
  d8:	46771e63          	bne	x14,x7,554 <fail>

000000dc <test_11>:
  dc:	fff00093          	addi	x1,x0,-1
  e0:	01f00113          	addi	x2,x0,31
  e4:	00209733          	sll	x14,x1,x2
  e8:	800003b7          	lui	x7,0x80000
  ec:	00b00193          	addi	x3,x0,11
  f0:	46771263          	bne	x14,x7,554 <fail>

000000f4 <test_12>:
  f4:	212120b7          	lui	x1,0x21212
  f8:	12108093          	addi	x1,x1,289 # 21212121 <_end+0x21210121>
  fc:	00000113          	addi	x2,x0,0
 100:	00209733          	sll	x14,x1,x2
 104:	212123b7          	lui	x7,0x21212
 108:	12138393          	addi	x7,x7,289 # 21212121 <_end+0x21210121>
 10c:	00c00193          	addi	x3,x0,12
 110:	44771263          	bne	x14,x7,554 <fail>

00000114 <test_13>:
 114:	212120b7          	lui	x1,0x21212
 118:	12108093          	addi	x1,x1,289 # 21212121 <_end+0x21210121>
 11c:	00100113          	addi	x2,x0,1
 120:	00209733          	sll	x14,x1,x2
 124:	424243b7          	lui	x7,0x42424
 128:	24238393          	addi	x7,x7,578 # 42424242 <_end+0x42422242>
 12c:	00d00193          	addi	x3,x0,13
 130:	42771263          	bne	x14,x7,554 <fail>

00000134 <test_14>:
 134:	212120b7          	lui	x1,0x21212
 138:	12108093          	addi	x1,x1,289 # 21212121 <_end+0x21210121>
 13c:	00700113          	addi	x2,x0,7
 140:	00209733          	sll	x14,x1,x2
 144:	909093b7          	lui	x7,0x90909
 148:	08038393          	addi	x7,x7,128 # 90909080 <_end+0x90907080>
 14c:	00e00193          	addi	x3,x0,14
 150:	40771263          	bne	x14,x7,554 <fail>

00000154 <test_15>:
 154:	212120b7          	lui	x1,0x21212
 158:	12108093          	addi	x1,x1,289 # 21212121 <_end+0x21210121>
 15c:	00e00113          	addi	x2,x0,14
 160:	00209733          	sll	x14,x1,x2
 164:	484843b7          	lui	x7,0x48484
 168:	00f00193          	addi	x3,x0,15
 16c:	3e771463          	bne	x14,x7,554 <fail>

00000170 <test_16>:
 170:	212120b7          	lui	x1,0x21212
 174:	12108093          	addi	x1,x1,289 # 21212121 <_end+0x21210121>
 178:	01f00113          	addi	x2,x0,31
 17c:	00209733          	sll	x14,x1,x2
 180:	800003b7          	lui	x7,0x80000
 184:	01000193          	addi	x3,x0,16
 188:	3c771663          	bne	x14,x7,554 <fail>

0000018c <test_17>:
 18c:	212120b7          	lui	x1,0x21212
 190:	12108093          	addi	x1,x1,289 # 21212121 <_end+0x21210121>
 194:	fc000113          	addi	x2,x0,-64
 198:	00209733          	sll	x14,x1,x2
 19c:	212123b7          	lui	x7,0x21212
 1a0:	12138393          	addi	x7,x7,289 # 21212121 <_end+0x21210121>
 1a4:	01100193          	addi	x3,x0,17
 1a8:	3a771663          	bne	x14,x7,554 <fail>

000001ac <test_18>:
 1ac:	212120b7          	lui	x1,0x21212
 1b0:	12108093          	addi	x1,x1,289 # 21212121 <_end+0x21210121>
 1b4:	fc100113          	addi	x2,x0,-63
 1b8:	00209733          	sll	x14,x1,x2
 1bc:	424243b7          	lui	x7,0x42424
 1c0:	24238393          	addi	x7,x7,578 # 42424242 <_end+0x42422242>
 1c4:	01200193          	addi	x3,x0,18
 1c8:	38771663          	bne	x14,x7,554 <fail>

000001cc <test_19>:
 1cc:	212120b7          	lui	x1,0x21212
 1d0:	12108093          	addi	x1,x1,289 # 21212121 <_end+0x21210121>
 1d4:	fc700113          	addi	x2,x0,-57
 1d8:	00209733          	sll	x14,x1,x2
 1dc:	909093b7          	lui	x7,0x90909
 1e0:	08038393          	addi	x7,x7,128 # 90909080 <_end+0x90907080>
 1e4:	01300193          	addi	x3,x0,19
 1e8:	36771663          	bne	x14,x7,554 <fail>

000001ec <test_20>:
 1ec:	212120b7          	lui	x1,0x21212
 1f0:	12108093          	addi	x1,x1,289 # 21212121 <_end+0x21210121>
 1f4:	fce00113          	addi	x2,x0,-50
 1f8:	00209733          	sll	x14,x1,x2
 1fc:	484843b7          	lui	x7,0x48484
 200:	01400193          	addi	x3,x0,20
 204:	34771863          	bne	x14,x7,554 <fail>

00000208 <test_22>:
 208:	00100093          	addi	x1,x0,1
 20c:	00700113          	addi	x2,x0,7
 210:	002090b3          	sll	x1,x1,x2
 214:	08000393          	addi	x7,x0,128
 218:	01600193          	addi	x3,x0,22
 21c:	32709c63          	bne	x1,x7,554 <fail>

00000220 <test_23>:
 220:	00100093          	addi	x1,x0,1
 224:	00e00113          	addi	x2,x0,14
 228:	00209133          	sll	x2,x1,x2
 22c:	000043b7          	lui	x7,0x4
 230:	01700193          	addi	x3,x0,23
 234:	32711063          	bne	x2,x7,554 <fail>

00000238 <test_24>:
 238:	00300093          	addi	x1,x0,3
 23c:	001090b3          	sll	x1,x1,x1
 240:	01800393          	addi	x7,x0,24
 244:	01800193          	addi	x3,x0,24
 248:	30709663          	bne	x1,x7,554 <fail>

0000024c <test_25>:
 24c:	00000213          	addi	x4,x0,0
 250:	00100093          	addi	x1,x0,1
 254:	00700113          	addi	x2,x0,7
 258:	00209733          	sll	x14,x1,x2
 25c:	00070313          	addi	x6,x14,0
 260:	00120213          	addi	x4,x4,1 # 1 <_start+0x1>
 264:	00200293          	addi	x5,x0,2
 268:	fe5214e3          	bne	x4,x5,250 <test_25+0x4>
 26c:	08000393          	addi	x7,x0,128
 270:	01900193          	addi	x3,x0,25
 274:	2e731063          	bne	x6,x7,554 <fail>

00000278 <test_26>:
 278:	00000213          	addi	x4,x0,0
 27c:	00100093          	addi	x1,x0,1
 280:	00e00113          	addi	x2,x0,14
 284:	00209733          	sll	x14,x1,x2
 288:	00000013          	addi	x0,x0,0
 28c:	00070313          	addi	x6,x14,0
 290:	00120213          	addi	x4,x4,1 # 1 <_start+0x1>
 294:	00200293          	addi	x5,x0,2
 298:	fe5212e3          	bne	x4,x5,27c <test_26+0x4>
 29c:	000043b7          	lui	x7,0x4
 2a0:	01a00193          	addi	x3,x0,26
 2a4:	2a731863          	bne	x6,x7,554 <fail>

000002a8 <test_27>:
 2a8:	00000213          	addi	x4,x0,0
 2ac:	00100093          	addi	x1,x0,1
 2b0:	01f00113          	addi	x2,x0,31
 2b4:	00209733          	sll	x14,x1,x2
 2b8:	00000013          	addi	x0,x0,0
 2bc:	00000013          	addi	x0,x0,0
 2c0:	00070313          	addi	x6,x14,0
 2c4:	00120213          	addi	x4,x4,1 # 1 <_start+0x1>
 2c8:	00200293          	addi	x5,x0,2
 2cc:	fe5210e3          	bne	x4,x5,2ac <test_27+0x4>
 2d0:	800003b7          	lui	x7,0x80000
 2d4:	01b00193          	addi	x3,x0,27
 2d8:	26731e63          	bne	x6,x7,554 <fail>

000002dc <test_28>:
 2dc:	00000213          	addi	x4,x0,0
 2e0:	00100093          	addi	x1,x0,1
 2e4:	00700113          	addi	x2,x0,7
 2e8:	00209733          	sll	x14,x1,x2
 2ec:	00120213          	addi	x4,x4,1 # 1 <_start+0x1>
 2f0:	00200293          	addi	x5,x0,2
 2f4:	fe5216e3          	bne	x4,x5,2e0 <test_28+0x4>
 2f8:	08000393          	addi	x7,x0,128
 2fc:	01c00193          	addi	x3,x0,28
 300:	24771a63          	bne	x14,x7,554 <fail>

00000304 <test_29>:
 304:	00000213          	addi	x4,x0,0
 308:	00100093          	addi	x1,x0,1
 30c:	00e00113          	addi	x2,x0,14
 310:	00000013          	addi	x0,x0,0
 314:	00209733          	sll	x14,x1,x2
 318:	00120213          	addi	x4,x4,1 # 1 <_start+0x1>
 31c:	00200293          	addi	x5,x0,2
 320:	fe5214e3          	bne	x4,x5,308 <test_29+0x4>
 324:	000043b7          	lui	x7,0x4
 328:	01d00193          	addi	x3,x0,29
 32c:	22771463          	bne	x14,x7,554 <fail>

00000330 <test_30>:
 330:	00000213          	addi	x4,x0,0
 334:	00100093          	addi	x1,x0,1
 338:	01f00113          	addi	x2,x0,31
 33c:	00000013          	addi	x0,x0,0
 340:	00000013          	addi	x0,x0,0
 344:	00209733          	sll	x14,x1,x2
 348:	00120213          	addi	x4,x4,1 # 1 <_start+0x1>
 34c:	00200293          	addi	x5,x0,2
 350:	fe5212e3          	bne	x4,x5,334 <test_30+0x4>
 354:	800003b7          	lui	x7,0x80000
 358:	01e00193          	addi	x3,x0,30
 35c:	1e771c63          	bne	x14,x7,554 <fail>

00000360 <test_31>:
 360:	00000213          	addi	x4,x0,0
 364:	00100093          	addi	x1,x0,1
 368:	00000013          	addi	x0,x0,0
 36c:	00700113          	addi	x2,x0,7
 370:	00209733          	sll	x14,x1,x2
 374:	00120213          	addi	x4,x4,1 # 1 <_start+0x1>
 378:	00200293          	addi	x5,x0,2
 37c:	fe5214e3          	bne	x4,x5,364 <test_31+0x4>
 380:	08000393          	addi	x7,x0,128
 384:	01f00193          	addi	x3,x0,31
 388:	1c771663          	bne	x14,x7,554 <fail>

0000038c <test_32>:
 38c:	00000213          	addi	x4,x0,0
 390:	00100093          	addi	x1,x0,1
 394:	00000013          	addi	x0,x0,0
 398:	00e00113          	addi	x2,x0,14
 39c:	00000013          	addi	x0,x0,0
 3a0:	00209733          	sll	x14,x1,x2
 3a4:	00120213          	addi	x4,x4,1 # 1 <_start+0x1>
 3a8:	00200293          	addi	x5,x0,2
 3ac:	fe5212e3          	bne	x4,x5,390 <test_32+0x4>
 3b0:	000043b7          	lui	x7,0x4
 3b4:	02000193          	addi	x3,x0,32
 3b8:	18771e63          	bne	x14,x7,554 <fail>

000003bc <test_33>:
 3bc:	00000213          	addi	x4,x0,0
 3c0:	00100093          	addi	x1,x0,1
 3c4:	00000013          	addi	x0,x0,0
 3c8:	00000013          	addi	x0,x0,0
 3cc:	01f00113          	addi	x2,x0,31
 3d0:	00209733          	sll	x14,x1,x2
 3d4:	00120213          	addi	x4,x4,1 # 1 <_start+0x1>
 3d8:	00200293          	addi	x5,x0,2
 3dc:	fe5212e3          	bne	x4,x5,3c0 <test_33+0x4>
 3e0:	800003b7          	lui	x7,0x80000
 3e4:	02100193          	addi	x3,x0,33
 3e8:	16771663          	bne	x14,x7,554 <fail>

000003ec <test_34>:
 3ec:	00000213          	addi	x4,x0,0
 3f0:	00700113          	addi	x2,x0,7
 3f4:	00100093          	addi	x1,x0,1
 3f8:	00209733          	sll	x14,x1,x2
 3fc:	00120213          	addi	x4,x4,1 # 1 <_start+0x1>
 400:	00200293          	addi	x5,x0,2
 404:	fe5216e3          	bne	x4,x5,3f0 <test_34+0x4>
 408:	08000393          	addi	x7,x0,128
 40c:	02200193          	addi	x3,x0,34
 410:	14771263          	bne	x14,x7,554 <fail>

00000414 <test_35>:
 414:	00000213          	addi	x4,x0,0
 418:	00e00113          	addi	x2,x0,14
 41c:	00100093          	addi	x1,x0,1
 420:	00000013          	addi	x0,x0,0
 424:	00209733          	sll	x14,x1,x2
 428:	00120213          	addi	x4,x4,1 # 1 <_start+0x1>
 42c:	00200293          	addi	x5,x0,2
 430:	fe5214e3          	bne	x4,x5,418 <test_35+0x4>
 434:	000043b7          	lui	x7,0x4
 438:	02300193          	addi	x3,x0,35
 43c:	10771c63          	bne	x14,x7,554 <fail>

00000440 <test_36>:
 440:	00000213          	addi	x4,x0,0
 444:	01f00113          	addi	x2,x0,31
 448:	00100093          	addi	x1,x0,1
 44c:	00000013          	addi	x0,x0,0
 450:	00000013          	addi	x0,x0,0
 454:	00209733          	sll	x14,x1,x2
 458:	00120213          	addi	x4,x4,1 # 1 <_start+0x1>
 45c:	00200293          	addi	x5,x0,2
 460:	fe5212e3          	bne	x4,x5,444 <test_36+0x4>
 464:	800003b7          	lui	x7,0x80000
 468:	02400193          	addi	x3,x0,36
 46c:	0e771463          	bne	x14,x7,554 <fail>

00000470 <test_37>:
 470:	00000213          	addi	x4,x0,0
 474:	00700113          	addi	x2,x0,7
 478:	00000013          	addi	x0,x0,0
 47c:	00100093          	addi	x1,x0,1
 480:	00209733          	sll	x14,x1,x2
 484:	00120213          	addi	x4,x4,1 # 1 <_start+0x1>
 488:	00200293          	addi	x5,x0,2
 48c:	fe5214e3          	bne	x4,x5,474 <test_37+0x4>
 490:	08000393          	addi	x7,x0,128
 494:	02500193          	addi	x3,x0,37
 498:	0a771e63          	bne	x14,x7,554 <fail>

0000049c <test_38>:
 49c:	00000213          	addi	x4,x0,0
 4a0:	00e00113          	addi	x2,x0,14
 4a4:	00000013          	addi	x0,x0,0
 4a8:	00100093          	addi	x1,x0,1
 4ac:	00000013          	addi	x0,x0,0
 4b0:	00209733          	sll	x14,x1,x2
 4b4:	00120213          	addi	x4,x4,1 # 1 <_start+0x1>
 4b8:	00200293          	addi	x5,x0,2
 4bc:	fe5212e3          	bne	x4,x5,4a0 <test_38+0x4>
 4c0:	000043b7          	lui	x7,0x4
 4c4:	02600193          	addi	x3,x0,38
 4c8:	08771663          	bne	x14,x7,554 <fail>

000004cc <test_39>:
 4cc:	00000213          	addi	x4,x0,0
 4d0:	01f00113          	addi	x2,x0,31
 4d4:	00000013          	addi	x0,x0,0
 4d8:	00000013          	addi	x0,x0,0
 4dc:	00100093          	addi	x1,x0,1
 4e0:	00209733          	sll	x14,x1,x2
 4e4:	00120213          	addi	x4,x4,1 # 1 <_start+0x1>
 4e8:	00200293          	addi	x5,x0,2
 4ec:	fe5212e3          	bne	x4,x5,4d0 <test_39+0x4>
 4f0:	800003b7          	lui	x7,0x80000
 4f4:	02700193          	addi	x3,x0,39
 4f8:	04771e63          	bne	x14,x7,554 <fail>

000004fc <test_40>:
 4fc:	00f00093          	addi	x1,x0,15
 500:	00101133          	sll	x2,x0,x1
 504:	00000393          	addi	x7,x0,0
 508:	02800193          	addi	x3,x0,40
 50c:	04711463          	bne	x2,x7,554 <fail>

00000510 <test_41>:
 510:	02000093          	addi	x1,x0,32
 514:	00009133          	sll	x2,x1,x0
 518:	02000393          	addi	x7,x0,32
 51c:	02900193          	addi	x3,x0,41
 520:	02711a63          	bne	x2,x7,554 <fail>

00000524 <test_42>:
 524:	000010b3          	sll	x1,x0,x0
 528:	00000393          	addi	x7,x0,0
 52c:	02a00193          	addi	x3,x0,42
 530:	02709263          	bne	x1,x7,554 <fail>

00000534 <test_43>:
 534:	40000093          	addi	x1,x0,1024
 538:	00001137          	lui	x2,0x1
 53c:	80010113          	addi	x2,x2,-2048 # 800 <pass+0x294>
 540:	00209033          	sll	x0,x1,x2
 544:	00000393          	addi	x7,x0,0
 548:	02b00193          	addi	x3,x0,43
 54c:	00701463          	bne	x0,x7,554 <fail>
 550:	00301e63          	bne	x0,x3,56c <pass>

00000554 <fail>:
 554:	00018063          	beq	x3,x0,554 <fail>
 558:	00119193          	slli	x3,x3,0x1
 55c:	0011e193          	ori	x3,x3,1
 560:	05d00893          	addi	x17,x0,93
 564:	00018513          	addi	x10,x3,0
 568:	00000073          	ecall

0000056c <pass>:
 56c:	00100193          	addi	x3,x0,1
 570:	05d00893          	addi	x17,x0,93
 574:	00000513          	addi	x10,x0,0
 578:	00000073          	ecall
 57c:	c0001073          	unimp
 580:	0000                	c.unimp
 582:	0000                	c.unimp
