
sw:     file format elf32-littleriscv


Disassembly of section .text.init:

00000000 <_start>:
   0:	0040006f          	jal	x0,4 <reset_vector>

00000004 <reset_vector>:
   4:	000020b7          	lui	x1,0x2
   8:	00008093          	addi	x1,x1,0 # 2000 <begin_signature>
   c:	00aa0137          	lui	x2,0xaa0
  10:	0aa10113          	addi	x2,x2,170 # aa00aa <_end+0xa9e07a>
  14:	0020a023          	sw	x2,0(x1)
  18:	0000a703          	lw	x14,0(x1)
  1c:	00aa03b7          	lui	x7,0xaa0
  20:	0aa38393          	addi	x7,x7,170 # aa00aa <_end+0xa9e07a>
  24:	00200193          	addi	x3,x0,2
  28:	46771063          	bne	x14,x7,488 <fail>

0000002c <test_3>:
  2c:	000020b7          	lui	x1,0x2
  30:	00008093          	addi	x1,x1,0 # 2000 <begin_signature>
  34:	aa00b137          	lui	x2,0xaa00b
  38:	a0010113          	addi	x2,x2,-1536 # aa00aa00 <_end+0xaa0089d0>
  3c:	0020a223          	sw	x2,4(x1)
  40:	0040a703          	lw	x14,4(x1)
  44:	aa00b3b7          	lui	x7,0xaa00b
  48:	a0038393          	addi	x7,x7,-1536 # aa00aa00 <_end+0xaa0089d0>
  4c:	00300193          	addi	x3,x0,3
  50:	42771c63          	bne	x14,x7,488 <fail>

00000054 <test_4>:
  54:	000020b7          	lui	x1,0x2
  58:	00008093          	addi	x1,x1,0 # 2000 <begin_signature>
  5c:	0aa01137          	lui	x2,0xaa01
  60:	aa010113          	addi	x2,x2,-1376 # aa00aa0 <_end+0xa9fea70>
  64:	0020a423          	sw	x2,8(x1)
  68:	0080a703          	lw	x14,8(x1)
  6c:	0aa013b7          	lui	x7,0xaa01
  70:	aa038393          	addi	x7,x7,-1376 # aa00aa0 <_end+0xa9fea70>
  74:	00400193          	addi	x3,x0,4
  78:	40771863          	bne	x14,x7,488 <fail>

0000007c <test_5>:
  7c:	000020b7          	lui	x1,0x2
  80:	00008093          	addi	x1,x1,0 # 2000 <begin_signature>
  84:	a00aa137          	lui	x2,0xa00aa
  88:	00a10113          	addi	x2,x2,10 # a00aa00a <_end+0xa00a7fda>
  8c:	0020a623          	sw	x2,12(x1)
  90:	00c0a703          	lw	x14,12(x1)
  94:	a00aa3b7          	lui	x7,0xa00aa
  98:	00a38393          	addi	x7,x7,10 # a00aa00a <_end+0xa00a7fda>
  9c:	00500193          	addi	x3,x0,5
  a0:	3e771463          	bne	x14,x7,488 <fail>

000000a4 <test_6>:
  a4:	000020b7          	lui	x1,0x2
  a8:	01c08093          	addi	x1,x1,28 # 201c <tdat8>
  ac:	00aa0137          	lui	x2,0xaa0
  b0:	0aa10113          	addi	x2,x2,170 # aa00aa <_end+0xa9e07a>
  b4:	fe20aa23          	sw	x2,-12(x1)
  b8:	ff40a703          	lw	x14,-12(x1)
  bc:	00aa03b7          	lui	x7,0xaa0
  c0:	0aa38393          	addi	x7,x7,170 # aa00aa <_end+0xa9e07a>
  c4:	00600193          	addi	x3,x0,6
  c8:	3c771063          	bne	x14,x7,488 <fail>

000000cc <test_7>:
  cc:	000020b7          	lui	x1,0x2
  d0:	01c08093          	addi	x1,x1,28 # 201c <tdat8>
  d4:	aa00b137          	lui	x2,0xaa00b
  d8:	a0010113          	addi	x2,x2,-1536 # aa00aa00 <_end+0xaa0089d0>
  dc:	fe20ac23          	sw	x2,-8(x1)
  e0:	ff80a703          	lw	x14,-8(x1)
  e4:	aa00b3b7          	lui	x7,0xaa00b
  e8:	a0038393          	addi	x7,x7,-1536 # aa00aa00 <_end+0xaa0089d0>
  ec:	00700193          	addi	x3,x0,7
  f0:	38771c63          	bne	x14,x7,488 <fail>

000000f4 <test_8>:
  f4:	000020b7          	lui	x1,0x2
  f8:	01c08093          	addi	x1,x1,28 # 201c <tdat8>
  fc:	0aa01137          	lui	x2,0xaa01
 100:	aa010113          	addi	x2,x2,-1376 # aa00aa0 <_end+0xa9fea70>
 104:	fe20ae23          	sw	x2,-4(x1)
 108:	ffc0a703          	lw	x14,-4(x1)
 10c:	0aa013b7          	lui	x7,0xaa01
 110:	aa038393          	addi	x7,x7,-1376 # aa00aa0 <_end+0xa9fea70>
 114:	00800193          	addi	x3,x0,8
 118:	36771863          	bne	x14,x7,488 <fail>

0000011c <test_9>:
 11c:	000020b7          	lui	x1,0x2
 120:	01c08093          	addi	x1,x1,28 # 201c <tdat8>
 124:	a00aa137          	lui	x2,0xa00aa
 128:	00a10113          	addi	x2,x2,10 # a00aa00a <_end+0xa00a7fda>
 12c:	0020a023          	sw	x2,0(x1)
 130:	0000a703          	lw	x14,0(x1)
 134:	a00aa3b7          	lui	x7,0xa00aa
 138:	00a38393          	addi	x7,x7,10 # a00aa00a <_end+0xa00a7fda>
 13c:	00900193          	addi	x3,x0,9
 140:	34771463          	bne	x14,x7,488 <fail>

00000144 <test_10>:
 144:	000020b7          	lui	x1,0x2
 148:	02008093          	addi	x1,x1,32 # 2020 <tdat9>
 14c:	12345137          	lui	x2,0x12345
 150:	67810113          	addi	x2,x2,1656 # 12345678 <_end+0x12343648>
 154:	fe008213          	addi	x4,x1,-32
 158:	02222023          	sw	x2,32(x4) # 20 <reset_vector+0x1c>
 15c:	0000a283          	lw	x5,0(x1)
 160:	123453b7          	lui	x7,0x12345
 164:	67838393          	addi	x7,x7,1656 # 12345678 <_end+0x12343648>
 168:	00a00193          	addi	x3,x0,10
 16c:	30729e63          	bne	x5,x7,488 <fail>

00000170 <test_11>:
 170:	000020b7          	lui	x1,0x2
 174:	02008093          	addi	x1,x1,32 # 2020 <tdat9>
 178:	58213137          	lui	x2,0x58213
 17c:	09810113          	addi	x2,x2,152 # 58213098 <_end+0x58211068>
 180:	ffd08093          	addi	x1,x1,-3
 184:	0020a3a3          	sw	x2,7(x1)
 188:	00002237          	lui	x4,0x2
 18c:	02420213          	addi	x4,x4,36 # 2024 <tdat10>
 190:	00022283          	lw	x5,0(x4) # 0 <_start>
 194:	582133b7          	lui	x7,0x58213
 198:	09838393          	addi	x7,x7,152 # 58213098 <_end+0x58211068>
 19c:	00b00193          	addi	x3,x0,11
 1a0:	2e729463          	bne	x5,x7,488 <fail>

000001a4 <test_12>:
 1a4:	00c00193          	addi	x3,x0,12
 1a8:	00000213          	addi	x4,x0,0
 1ac:	aabbd0b7          	lui	x1,0xaabbd
 1b0:	cdd08093          	addi	x1,x1,-803 # aabbccdd <_end+0xaabbacad>
 1b4:	00002137          	lui	x2,0x2
 1b8:	00010113          	addi	x2,x2,0 # 2000 <begin_signature>
 1bc:	00112023          	sw	x1,0(x2)
 1c0:	00012703          	lw	x14,0(x2)
 1c4:	aabbd3b7          	lui	x7,0xaabbd
 1c8:	cdd38393          	addi	x7,x7,-803 # aabbccdd <_end+0xaabbacad>
 1cc:	2a771e63          	bne	x14,x7,488 <fail>
 1d0:	00120213          	addi	x4,x4,1 # 1 <_start+0x1>
 1d4:	00200293          	addi	x5,x0,2
 1d8:	fc521ae3          	bne	x4,x5,1ac <test_12+0x8>

000001dc <test_13>:
 1dc:	00d00193          	addi	x3,x0,13
 1e0:	00000213          	addi	x4,x0,0
 1e4:	daabc0b7          	lui	x1,0xdaabc
 1e8:	ccd08093          	addi	x1,x1,-819 # daabbccd <_end+0xdaab9c9d>
 1ec:	00002137          	lui	x2,0x2
 1f0:	00010113          	addi	x2,x2,0 # 2000 <begin_signature>
 1f4:	00000013          	addi	x0,x0,0
 1f8:	00112223          	sw	x1,4(x2)
 1fc:	00412703          	lw	x14,4(x2)
 200:	daabc3b7          	lui	x7,0xdaabc
 204:	ccd38393          	addi	x7,x7,-819 # daabbccd <_end+0xdaab9c9d>
 208:	28771063          	bne	x14,x7,488 <fail>
 20c:	00120213          	addi	x4,x4,1 # 1 <_start+0x1>
 210:	00200293          	addi	x5,x0,2
 214:	fc5218e3          	bne	x4,x5,1e4 <test_13+0x8>

00000218 <test_14>:
 218:	00e00193          	addi	x3,x0,14
 21c:	00000213          	addi	x4,x0,0
 220:	ddaac0b7          	lui	x1,0xddaac
 224:	bcc08093          	addi	x1,x1,-1076 # ddaabbcc <_end+0xddaa9b9c>
 228:	00002137          	lui	x2,0x2
 22c:	00010113          	addi	x2,x2,0 # 2000 <begin_signature>
 230:	00000013          	addi	x0,x0,0
 234:	00000013          	addi	x0,x0,0
 238:	00112423          	sw	x1,8(x2)
 23c:	00812703          	lw	x14,8(x2)
 240:	ddaac3b7          	lui	x7,0xddaac
 244:	bcc38393          	addi	x7,x7,-1076 # ddaabbcc <_end+0xddaa9b9c>
 248:	24771063          	bne	x14,x7,488 <fail>
 24c:	00120213          	addi	x4,x4,1 # 1 <_start+0x1>
 250:	00200293          	addi	x5,x0,2
 254:	fc5216e3          	bne	x4,x5,220 <test_14+0x8>

00000258 <test_15>:
 258:	00f00193          	addi	x3,x0,15
 25c:	00000213          	addi	x4,x0,0
 260:	cddab0b7          	lui	x1,0xcddab
 264:	bbc08093          	addi	x1,x1,-1092 # cddaabbc <_end+0xcdda8b8c>
 268:	00000013          	addi	x0,x0,0
 26c:	00002137          	lui	x2,0x2
 270:	00010113          	addi	x2,x2,0 # 2000 <begin_signature>
 274:	00112623          	sw	x1,12(x2)
 278:	00c12703          	lw	x14,12(x2)
 27c:	cddab3b7          	lui	x7,0xcddab
 280:	bbc38393          	addi	x7,x7,-1092 # cddaabbc <_end+0xcdda8b8c>
 284:	20771263          	bne	x14,x7,488 <fail>
 288:	00120213          	addi	x4,x4,1 # 1 <_start+0x1>
 28c:	00200293          	addi	x5,x0,2
 290:	fc5218e3          	bne	x4,x5,260 <test_15+0x8>

00000294 <test_16>:
 294:	01000193          	addi	x3,x0,16
 298:	00000213          	addi	x4,x0,0
 29c:	ccddb0b7          	lui	x1,0xccddb
 2a0:	abb08093          	addi	x1,x1,-1349 # ccddaabb <_end+0xccdd8a8b>
 2a4:	00000013          	addi	x0,x0,0
 2a8:	00002137          	lui	x2,0x2
 2ac:	00010113          	addi	x2,x2,0 # 2000 <begin_signature>
 2b0:	00000013          	addi	x0,x0,0
 2b4:	00112823          	sw	x1,16(x2)
 2b8:	01012703          	lw	x14,16(x2)
 2bc:	ccddb3b7          	lui	x7,0xccddb
 2c0:	abb38393          	addi	x7,x7,-1349 # ccddaabb <_end+0xccdd8a8b>
 2c4:	1c771263          	bne	x14,x7,488 <fail>
 2c8:	00120213          	addi	x4,x4,1 # 1 <_start+0x1>
 2cc:	00200293          	addi	x5,x0,2
 2d0:	fc5216e3          	bne	x4,x5,29c <test_16+0x8>

000002d4 <test_17>:
 2d4:	01100193          	addi	x3,x0,17
 2d8:	00000213          	addi	x4,x0,0
 2dc:	bccde0b7          	lui	x1,0xbccde
 2e0:	aab08093          	addi	x1,x1,-1365 # bccddaab <_end+0xbccdba7b>
 2e4:	00000013          	addi	x0,x0,0
 2e8:	00000013          	addi	x0,x0,0
 2ec:	00002137          	lui	x2,0x2
 2f0:	00010113          	addi	x2,x2,0 # 2000 <begin_signature>
 2f4:	00112a23          	sw	x1,20(x2)
 2f8:	01412703          	lw	x14,20(x2)
 2fc:	bccde3b7          	lui	x7,0xbccde
 300:	aab38393          	addi	x7,x7,-1365 # bccddaab <_end+0xbccdba7b>
 304:	18771263          	bne	x14,x7,488 <fail>
 308:	00120213          	addi	x4,x4,1 # 1 <_start+0x1>
 30c:	00200293          	addi	x5,x0,2
 310:	fc5216e3          	bne	x4,x5,2dc <test_17+0x8>

00000314 <test_18>:
 314:	01200193          	addi	x3,x0,18
 318:	00000213          	addi	x4,x0,0
 31c:	00002137          	lui	x2,0x2
 320:	00010113          	addi	x2,x2,0 # 2000 <begin_signature>
 324:	001120b7          	lui	x1,0x112
 328:	23308093          	addi	x1,x1,563 # 112233 <_end+0x110203>
 32c:	00112023          	sw	x1,0(x2)
 330:	00012703          	lw	x14,0(x2)
 334:	001123b7          	lui	x7,0x112
 338:	23338393          	addi	x7,x7,563 # 112233 <_end+0x110203>
 33c:	14771663          	bne	x14,x7,488 <fail>
 340:	00120213          	addi	x4,x4,1 # 1 <_start+0x1>
 344:	00200293          	addi	x5,x0,2
 348:	fc521ae3          	bne	x4,x5,31c <test_18+0x8>

0000034c <test_19>:
 34c:	01300193          	addi	x3,x0,19
 350:	00000213          	addi	x4,x0,0
 354:	00002137          	lui	x2,0x2
 358:	00010113          	addi	x2,x2,0 # 2000 <begin_signature>
 35c:	300110b7          	lui	x1,0x30011
 360:	22308093          	addi	x1,x1,547 # 30011223 <_end+0x3000f1f3>
 364:	00000013          	addi	x0,x0,0
 368:	00112223          	sw	x1,4(x2)
 36c:	00412703          	lw	x14,4(x2)
 370:	300113b7          	lui	x7,0x30011
 374:	22338393          	addi	x7,x7,547 # 30011223 <_end+0x3000f1f3>
 378:	10771863          	bne	x14,x7,488 <fail>
 37c:	00120213          	addi	x4,x4,1 # 1 <_start+0x1>
 380:	00200293          	addi	x5,x0,2
 384:	fc5218e3          	bne	x4,x5,354 <test_19+0x8>

00000388 <test_20>:
 388:	01400193          	addi	x3,x0,20
 38c:	00000213          	addi	x4,x0,0
 390:	00002137          	lui	x2,0x2
 394:	00010113          	addi	x2,x2,0 # 2000 <begin_signature>
 398:	330010b7          	lui	x1,0x33001
 39c:	12208093          	addi	x1,x1,290 # 33001122 <_end+0x32fff0f2>
 3a0:	00000013          	addi	x0,x0,0
 3a4:	00000013          	addi	x0,x0,0
 3a8:	00112423          	sw	x1,8(x2)
 3ac:	00812703          	lw	x14,8(x2)
 3b0:	330013b7          	lui	x7,0x33001
 3b4:	12238393          	addi	x7,x7,290 # 33001122 <_end+0x32fff0f2>
 3b8:	0c771863          	bne	x14,x7,488 <fail>
 3bc:	00120213          	addi	x4,x4,1 # 1 <_start+0x1>
 3c0:	00200293          	addi	x5,x0,2
 3c4:	fc5216e3          	bne	x4,x5,390 <test_20+0x8>

000003c8 <test_21>:
 3c8:	01500193          	addi	x3,x0,21
 3cc:	00000213          	addi	x4,x0,0
 3d0:	00002137          	lui	x2,0x2
 3d4:	00010113          	addi	x2,x2,0 # 2000 <begin_signature>
 3d8:	00000013          	addi	x0,x0,0
 3dc:	233000b7          	lui	x1,0x23300
 3e0:	11208093          	addi	x1,x1,274 # 23300112 <_end+0x232fe0e2>
 3e4:	00112623          	sw	x1,12(x2)
 3e8:	00c12703          	lw	x14,12(x2)
 3ec:	233003b7          	lui	x7,0x23300
 3f0:	11238393          	addi	x7,x7,274 # 23300112 <_end+0x232fe0e2>
 3f4:	08771a63          	bne	x14,x7,488 <fail>
 3f8:	00120213          	addi	x4,x4,1 # 1 <_start+0x1>
 3fc:	00200293          	addi	x5,x0,2
 400:	fc5218e3          	bne	x4,x5,3d0 <test_21+0x8>

00000404 <test_22>:
 404:	01600193          	addi	x3,x0,22
 408:	00000213          	addi	x4,x0,0
 40c:	00002137          	lui	x2,0x2
 410:	00010113          	addi	x2,x2,0 # 2000 <begin_signature>
 414:	00000013          	addi	x0,x0,0
 418:	223300b7          	lui	x1,0x22330
 41c:	01108093          	addi	x1,x1,17 # 22330011 <_end+0x2232dfe1>
 420:	00000013          	addi	x0,x0,0
 424:	00112823          	sw	x1,16(x2)
 428:	01012703          	lw	x14,16(x2)
 42c:	223303b7          	lui	x7,0x22330
 430:	01138393          	addi	x7,x7,17 # 22330011 <_end+0x2232dfe1>
 434:	04771a63          	bne	x14,x7,488 <fail>
 438:	00120213          	addi	x4,x4,1 # 1 <_start+0x1>
 43c:	00200293          	addi	x5,x0,2
 440:	fc5216e3          	bne	x4,x5,40c <test_22+0x8>

00000444 <test_23>:
 444:	01700193          	addi	x3,x0,23
 448:	00000213          	addi	x4,x0,0
 44c:	00002137          	lui	x2,0x2
 450:	00010113          	addi	x2,x2,0 # 2000 <begin_signature>
 454:	00000013          	addi	x0,x0,0
 458:	00000013          	addi	x0,x0,0
 45c:	122330b7          	lui	x1,0x12233
 460:	00108093          	addi	x1,x1,1 # 12233001 <_end+0x12230fd1>
 464:	00112a23          	sw	x1,20(x2)
 468:	01412703          	lw	x14,20(x2)
 46c:	122333b7          	lui	x7,0x12233
 470:	00138393          	addi	x7,x7,1 # 12233001 <_end+0x12230fd1>
 474:	00771a63          	bne	x14,x7,488 <fail>
 478:	00120213          	addi	x4,x4,1 # 1 <_start+0x1>
 47c:	00200293          	addi	x5,x0,2
 480:	fc5216e3          	bne	x4,x5,44c <test_23+0x8>
 484:	00301e63          	bne	x0,x3,4a0 <pass>

00000488 <fail>:
 488:	00018063          	beq	x3,x0,488 <fail>
 48c:	00119193          	slli	x3,x3,0x1
 490:	0011e193          	ori	x3,x3,1
 494:	05d00893          	addi	x17,x0,93
 498:	00018513          	addi	x10,x3,0
 49c:	00000073          	ecall

000004a0 <pass>:
 4a0:	00100193          	addi	x3,x0,1
 4a4:	05d00893          	addi	x17,x0,93
 4a8:	00000513          	addi	x10,x0,0
 4ac:	00000073          	ecall
 4b0:	c0001073          	unimp
 4b4:	0000                	c.unimp
 4b6:	0000                	c.unimp
 4b8:	0000                	c.unimp
 4ba:	0000                	c.unimp
 4bc:	0000                	c.unimp
 4be:	0000                	c.unimp
 4c0:	0000                	c.unimp
 4c2:	0000                	c.unimp
